; Function Attrs: mustprogress null_pointer_is_valid sspstrong uwtable
define void @_ZN23ProtocolPreferencesMenu26modulePreferencesTriggeredEv(ptr noundef align 8 dereferenceable_or_null(80) %0) #0 align 2 personality ptr @__gxx_personality_v0 {
  %2 = alloca %class.QString, align 8
  %3 = getelementptr inbounds nuw i8, ptr %0, i64 56
  %4 = load i64, ptr %3, align 8
  %5 = icmp eq i64 %4, 0
  br i1 %5, label %_ZN7QStringD2Ev.exit, label %6

6:                                                ; preds = %1
  %7 = getelementptr inbounds nuw i8, ptr %0, i64 40
  %8 = load ptr, ptr %7, align 8
  store ptr %8, ptr %2, align 8
  %9 = getelementptr inbounds nuw i8, ptr %2, i64 8
  %10 = getelementptr inbounds nuw i8, ptr %0, i64 48
  %11 = load ptr, ptr %10, align 8
  store ptr %11, ptr %9, align 8
  %12 = getelementptr inbounds nuw i8, ptr %2, i64 16
  store i64 %4, ptr %12, align 8
  %.not.i.i.i = icmp eq ptr %8, null
  br i1 %.not.i.i.i, label %_ZN7QStringC2ERKS_.exit, label %13

13:                                               ; preds = %6
  %14 = atomicrmw add ptr %8, i32 1 seq_cst, align 4
  br label %_ZN7QStringC2ERKS_.exit

_ZN7QStringC2ERKS_.exit:                          ; preds = %6, %13
  invoke void @_ZN23ProtocolPreferencesMenu23showProtocolPreferencesE7QString(ptr noundef align 8 dereferenceable_or_null(80) %0, ptr noundef nonnull %2)
          to label %15 unwind label %20

15:                                               ; preds = %_ZN7QStringC2ERKS_.exit
  %16 = load ptr, ptr %2, align 8
  %.not.i.i.i2 = icmp eq ptr %16, null
  br i1 %.not.i.i.i2, label %_ZN7QStringD2Ev.exit, label %_ZN17QArrayDataPointerIDsE5derefEv.exit.i.i

_ZN17QArrayDataPointerIDsE5derefEv.exit.i.i:      ; preds = %15
  %17 = atomicrmw sub ptr %16, i32 1 seq_cst, align 4
  %.not.i.i = icmp eq i32 %17, 1
  br i1 %.not.i.i, label %18, label %_ZN7QStringD2Ev.exit

18:                                               ; preds = %_ZN17QArrayDataPointerIDsE5derefEv.exit.i.i
  %19 = load ptr, ptr %2, align 8
  call void @_ZN10QArrayData10deallocateEPS_xx(ptr noundef %19, i64 noundef 2, i64 noundef 8) #10
  br label %_ZN7QStringD2Ev.exit

20:                                               ; preds = %_ZN7QStringC2ERKS_.exit
  %21 = landingpad { ptr, i32 }
          cleanup
  %22 = load ptr, ptr %2, align 8
  %.not.i.i.i3 = icmp eq ptr %22, null
  br i1 %.not.i.i.i3, label %_ZN7QStringD2Ev.exit6, label %_ZN17QArrayDataPointerIDsE5derefEv.exit.i.i4

_ZN17QArrayDataPointerIDsE5derefEv.exit.i.i4:     ; preds = %20
  %23 = atomicrmw sub ptr %22, i32 1 seq_cst, align 4
  %.not.i.i5 = icmp eq i32 %23, 1
  br i1 %.not.i.i5, label %24, label %_ZN7QStringD2Ev.exit6

24:                                               ; preds = %_ZN17QArrayDataPointerIDsE5derefEv.exit.i.i4
  %25 = load ptr, ptr %2, align 8
  call void @_ZN10QArrayData10deallocateEPS_xx(ptr noundef %25, i64 noundef 2, i64 noundef 8) #10
  br label %_ZN7QStringD2Ev.exit6

_ZN7QStringD2Ev.exit6:                            ; preds = %20, %_ZN17QArrayDataPointerIDsE5derefEv.exit.i.i4, %24
  resume { ptr, i32 } %21

_ZN7QStringD2Ev.exit:                             ; preds = %18, %_ZN17QArrayDataPointerIDsE5derefEv.exit.i.i, %15, %1
  ret void
}